target datalayout = "e-m:e-p270:32:32-p271:32:32-p272:64:64-i64:64-i128:128-f80:128-n8:16:32:64-S128"
target triple = "x86_64-pc-linux-gnu"

%struct.sview_config_t = type { ptr, ptr, ptr, ptr, ptr, ptr, ptr, i16, i16, i8, i16, i32, i32, i32, i8, i32, i32, i32, i32, [10 x ptr], [10 x %struct.page_opts_t], [10 x i8], i16, i8, i8, i8, i8, i16, i32 }
%struct.page_opts_t = type { ptr, i8, ptr, ptr }

@working_sview_config = external global %struct.sview_config_t, align 8
@.str.19 = private unnamed_addr constant [5 x i8] c"text\00", align 1
@.str.20 = private unnamed_addr constant [5 x i8] c"font\00", align 1
@.str.21 = private unnamed_addr constant [5 x i8] c"Name\00", align 1
@.str.22 = private unnamed_addr constant [6 x i8] c"Value\00", align 1

; Function Attrs: nounwind uwtable
define dso_local ptr @create_treeview_2cols_attach_to_table(ptr noundef %0) #0 {
  %2 = alloca ptr, align 8
  %3 = alloca ptr, align 8
  %4 = alloca ptr, align 8
  %5 = alloca ptr, align 8
  %6 = alloca ptr, align 8
  store ptr %0, ptr %2, align 8
  call void @llvm.lifetime.start.p0(i64 8, ptr %3) #11
  %7 = call ptr @gtk_tree_view_new()
  %8 = call i64 @gtk_tree_view_get_type() #12
  %9 = call ptr @g_type_check_instance_cast(ptr noundef %7, i64 noundef %8)
  store ptr %9, ptr %3, align 8
  call void @llvm.lifetime.start.p0(i64 8, ptr %4) #11
  %10 = call ptr (i32, ...) @gtk_tree_store_new(i32 noundef 3, i64 noundef 64, i64 noundef 64, i64 noundef 64)
  store ptr %10, ptr %4, align 8
  call void @llvm.lifetime.start.p0(i64 8, ptr %5) #11
  %11 = call ptr @gtk_tree_view_column_new()
  store ptr %11, ptr %5, align 8
  call void @llvm.lifetime.start.p0(i64 8, ptr %6) #11
  %12 = call ptr @gtk_cell_renderer_text_new()
  store ptr %12, ptr %6, align 8
  %13 = load i8, ptr getelementptr inbounds nuw (%struct.sview_config_t, ptr @working_sview_config, i32 0, i32 23), align 4, !range !23, !noundef !24
  %14 = trunc i8 %13 to i1
  br i1 %14, label %15, label %17

15:                                               ; preds = %1
  %16 = load ptr, ptr %3, align 8
  call void @gtk_tree_view_set_rules_hint(ptr noundef %16, i32 noundef 1)
  br label %17

17:                                               ; preds = %15, %1
  %18 = load ptr, ptr %2, align 8
  %19 = load ptr, ptr %3, align 8
  %20 = call i64 @gtk_widget_get_type() #12
  %21 = call ptr @g_type_check_instance_cast(ptr noundef %19, i64 noundef %20)
  call void @gtk_table_attach_defaults(ptr noundef %18, ptr noundef %21, i32 noundef 0, i32 noundef 1, i32 noundef 0, i32 noundef 1)
  %22 = load ptr, ptr %3, align 8
  %23 = load ptr, ptr %4, align 8
  %24 = call i64 @gtk_tree_model_get_type() #12
  %25 = call ptr @g_type_check_instance_cast(ptr noundef %23, i64 noundef %24)
  call void @gtk_tree_view_set_model(ptr noundef %22, ptr noundef %25)
  %26 = load ptr, ptr %5, align 8
  %27 = load ptr, ptr %6, align 8
  call void @gtk_tree_view_column_pack_start(ptr noundef %26, ptr noundef %27, i32 noundef 1)
  %28 = load ptr, ptr %5, align 8
  %29 = load ptr, ptr %6, align 8
  call void @gtk_tree_view_column_add_attribute(ptr noundef %28, ptr noundef %29, ptr noundef @.str.19, i32 noundef 0)
  %30 = load ptr, ptr %5, align 8
  %31 = load ptr, ptr %6, align 8
  call void @gtk_tree_view_column_add_attribute(ptr noundef %30, ptr noundef %31, ptr noundef @.str.20, i32 noundef 2)
  %32 = load ptr, ptr %5, align 8
  call void @gtk_tree_view_column_set_title(ptr noundef %32, ptr noundef @.str.21)
  %33 = load ptr, ptr %5, align 8
  call void @gtk_tree_view_column_set_resizable(ptr noundef %33, i32 noundef 1)
  %34 = load ptr, ptr %5, align 8
  call void @gtk_tree_view_column_set_expand(ptr noundef %34, i32 noundef 1)
  %35 = load ptr, ptr %3, align 8
  %36 = load ptr, ptr %5, align 8
  %37 = call i32 @gtk_tree_view_append_column(ptr noundef %35, ptr noundef %36)
  %38 = call ptr @gtk_tree_view_column_new()
  store ptr %38, ptr %5, align 8
  %39 = call ptr @gtk_cell_renderer_text_new()
  store ptr %39, ptr %6, align 8
  %40 = load ptr, ptr %5, align 8
  %41 = load ptr, ptr %6, align 8
  call void @gtk_tree_view_column_pack_start(ptr noundef %40, ptr noundef %41, i32 noundef 1)
  %42 = load ptr, ptr %5, align 8
  %43 = load ptr, ptr %6, align 8
  call void @gtk_tree_view_column_add_attribute(ptr noundef %42, ptr noundef %43, ptr noundef @.str.19, i32 noundef 1)
  %44 = load ptr, ptr %5, align 8
  %45 = load ptr, ptr %6, align 8
  call void @gtk_tree_view_column_add_attribute(ptr noundef %44, ptr noundef %45, ptr noundef @.str.20, i32 noundef 2)
  %46 = load ptr, ptr %5, align 8
  call void @gtk_tree_view_column_set_title(ptr noundef %46, ptr noundef @.str.22)
  %47 = load ptr, ptr %5, align 8
  call void @gtk_tree_view_column_set_resizable(ptr noundef %47, i32 noundef 1)
  %48 = load ptr, ptr %5, align 8
  call void @gtk_tree_view_column_set_expand(ptr noundef %48, i32 noundef 1)
  %49 = load ptr, ptr %3, align 8
  %50 = load ptr, ptr %5, align 8
  %51 = call i32 @gtk_tree_view_append_column(ptr noundef %49, ptr noundef %50)
  %52 = call ptr @gtk_tree_view_column_new()
  store ptr %52, ptr %5, align 8
  %53 = call ptr @gtk_cell_renderer_text_new()
  store ptr %53, ptr %6, align 8
  %54 = load ptr, ptr %5, align 8
  %55 = load ptr, ptr %6, align 8
  call void @gtk_tree_view_column_pack_start(ptr noundef %54, ptr noundef %55, i32 noundef 1)
  %56 = load ptr, ptr %5, align 8
  call void @gtk_tree_view_column_set_visible(ptr noundef %56, i32 noundef 0)
  %57 = load ptr, ptr %5, align 8
  %58 = load ptr, ptr %6, align 8
  call void @gtk_tree_view_column_add_attribute(ptr noundef %57, ptr noundef %58, ptr noundef @.str.19, i32 noundef 2)
  %59 = load ptr, ptr %3, align 8
  %60 = load ptr, ptr %5, align 8
  %61 = call i32 @gtk_tree_view_append_column(ptr noundef %59, ptr noundef %60)
  %62 = load ptr, ptr %4, align 8
  call void @g_object_unref(ptr noundef %62)
  %63 = load ptr, ptr %3, align 8
  call void @llvm.lifetime.end.p0(i64 8, ptr %6) #11
  call void @llvm.lifetime.end.p0(i64 8, ptr %5) #11
  call void @llvm.lifetime.end.p0(i64 8, ptr %4) #11
  call void @llvm.lifetime.end.p0(i64 8, ptr %3) #11
  ret ptr %63
}