; Function Attrs: nounwind uwtable
define dso_local ptr @create_treeview_2cols_attach_to_table(ptr noundef %0) local_unnamed_addr #2 {
  %2 = tail call ptr @gtk_tree_view_new() #16
  %3 = tail call i64 @gtk_tree_view_get_type() #17
  %4 = tail call ptr @g_type_check_instance_cast(ptr noundef %2, i64 noundef %3) #16
  %5 = tail call ptr (i32, ...) @gtk_tree_store_new(i32 noundef 3, i64 noundef 64, i64 noundef 64, i64 noundef 64) #16
  %6 = tail call ptr @gtk_tree_view_column_new() #16
  %7 = tail call ptr @gtk_cell_renderer_text_new() #16
  %8 = load i8, ptr getelementptr inbounds nuw (i8, ptr @working_sview_config, i64 508), align 4, !range !21, !noundef !22
  %9 = trunc nuw i8 %8 to i1
  br i1 %9, label %10, label %11

10:                                               ; preds = %1
  tail call void @gtk_tree_view_set_rules_hint(ptr noundef %4, i32 noundef 1) #16
  br label %11

11:                                               ; preds = %10, %1
  %12 = tail call i64 @gtk_widget_get_type() #17
  %13 = tail call ptr @g_type_check_instance_cast(ptr noundef %4, i64 noundef %12) #16
  tail call void @gtk_table_attach_defaults(ptr noundef %0, ptr noundef %13, i32 noundef 0, i32 noundef 1, i32 noundef 0, i32 noundef 1) #16
  %14 = tail call i64 @gtk_tree_model_get_type() #17
  %15 = tail call ptr @g_type_check_instance_cast(ptr noundef %5, i64 noundef %14) #16
  tail call void @gtk_tree_view_set_model(ptr noundef %4, ptr noundef %15) #16
  tail call void @gtk_tree_view_column_pack_start(ptr noundef %6, ptr noundef %7, i32 noundef 1) #16
  tail call void @gtk_tree_view_column_add_attribute(ptr noundef %6, ptr noundef %7, ptr noundef nonnull @.str.19, i32 noundef 0) #16
  tail call void @gtk_tree_view_column_add_attribute(ptr noundef %6, ptr noundef %7, ptr noundef nonnull @.str.20, i32 noundef 2) #16
  tail call void @gtk_tree_view_column_set_title(ptr noundef %6, ptr noundef nonnull @.str.21) #16
  tail call void @gtk_tree_view_column_set_resizable(ptr noundef %6, i32 noundef 1) #16
  tail call void @gtk_tree_view_column_set_expand(ptr noundef %6, i32 noundef 1) #16
  %16 = tail call i32 @gtk_tree_view_append_column(ptr noundef %4, ptr noundef %6) #16
  %17 = tail call ptr @gtk_tree_view_column_new() #16
  %18 = tail call ptr @gtk_cell_renderer_text_new() #16
  tail call void @gtk_tree_view_column_pack_start(ptr noundef %17, ptr noundef %18, i32 noundef 1) #16
  tail call void @gtk_tree_view_column_add_attribute(ptr noundef %17, ptr noundef %18, ptr noundef nonnull @.str.19, i32 noundef 1) #16
  tail call void @gtk_tree_view_column_add_attribute(ptr noundef %17, ptr noundef %18, ptr noundef nonnull @.str.20, i32 noundef 2) #16
  tail call void @gtk_tree_view_column_set_title(ptr noundef %17, ptr noundef nonnull @.str.22) #16
  tail call void @gtk_tree_view_column_set_resizable(ptr noundef %17, i32 noundef 1) #16
  tail call void @gtk_tree_view_column_set_expand(ptr noundef %17, i32 noundef 1) #16
  %19 = tail call i32 @gtk_tree_view_append_column(ptr noundef %4, ptr noundef %17) #16
  %20 = tail call ptr @gtk_tree_view_column_new() #16
  %21 = tail call ptr @gtk_cell_renderer_text_new() #16
  tail call void @gtk_tree_view_column_pack_start(ptr noundef %20, ptr noundef %21, i32 noundef 1) #16
  tail call void @gtk_tree_view_column_set_visible(ptr noundef %20, i32 noundef 0) #16
  tail call void @gtk_tree_view_column_add_attribute(ptr noundef %20, ptr noundef %21, ptr noundef nonnull @.str.19, i32 noundef 2) #16
  %22 = tail call i32 @gtk_tree_view_append_column(ptr noundef %4, ptr noundef %20) #16
  tail call void @g_object_unref(ptr noundef %5) #16
  ret ptr %4
}